target datalayout = "e-m:e-p270:32:32-p271:32:32-p272:64:64-i64:64-i128:128-f80:128-n8:16:32:64-S128"
target triple = "x86_64-pc-linux-gnu"

%struct._phpdbg_param = type { i32, i64, i64, %struct.anon, %struct.anon.0, ptr, i64, ptr, ptr }
%struct.anon = type { ptr, i64 }
%struct.anon.0 = type { ptr, ptr }

; Function Attrs: nounwind uwtable
define void @phpdbg_stack_push(ptr noundef %0, ptr noundef %1) #0 {
  %3 = alloca ptr, align 8
  %4 = alloca ptr, align 8
  %5 = alloca ptr, align 8
  store ptr %0, ptr %3, align 8
  store ptr %1, ptr %4, align 8
  %6 = call noalias ptr @calloc(i64 noundef 1, i64 noundef 88) #14
  store ptr %6, ptr %5, align 8
  %7 = load ptr, ptr %5, align 8
  %8 = icmp ne ptr %7, null
  br i1 %8, label %10, label %9

9:                                                ; preds = %2
  br label %47

10:                                               ; preds = %2
  %11 = load ptr, ptr %5, align 8
  %12 = load ptr, ptr %4, align 8
  call void @llvm.memcpy.p0.p0.i64(ptr align 8 %11, ptr align 8 %12, i64 88, i1 false)
  %13 = load ptr, ptr %5, align 8
  %14 = getelementptr inbounds %struct._phpdbg_param, ptr %13, i32 0, i32 7
  store ptr null, ptr %14, align 8
  %15 = load ptr, ptr %3, align 8
  %16 = getelementptr inbounds %struct._phpdbg_param, ptr %15, i32 0, i32 8
  %17 = load ptr, ptr %16, align 8
  %18 = icmp eq ptr %17, null
  br i1 %18, label %19, label %28

19:                                               ; preds = %10
  %20 = load ptr, ptr %5, align 8
  %21 = load ptr, ptr %3, align 8
  %22 = getelementptr inbounds %struct._phpdbg_param, ptr %21, i32 0, i32 8
  store ptr %20, ptr %22, align 8
  %23 = load ptr, ptr %5, align 8
  %24 = getelementptr inbounds %struct._phpdbg_param, ptr %23, i32 0, i32 8
  store ptr null, ptr %24, align 8
  %25 = load ptr, ptr %5, align 8
  %26 = load ptr, ptr %3, align 8
  %27 = getelementptr inbounds %struct._phpdbg_param, ptr %26, i32 0, i32 7
  store ptr %25, ptr %27, align 8
  br label %42

28:                                               ; preds = %10
  %29 = load ptr, ptr %5, align 8
  %30 = load ptr, ptr %3, align 8
  %31 = getelementptr inbounds %struct._phpdbg_param, ptr %30, i32 0, i32 8
  %32 = load ptr, ptr %31, align 8
  %33 = getelementptr inbounds %struct._phpdbg_param, ptr %32, i32 0, i32 7
  store ptr %29, ptr %33, align 8
  %34 = load ptr, ptr %3, align 8
  %35 = getelementptr inbounds %struct._phpdbg_param, ptr %34, i32 0, i32 8
  %36 = load ptr, ptr %35, align 8
  %37 = load ptr, ptr %5, align 8
  %38 = getelementptr inbounds %struct._phpdbg_param, ptr %37, i32 0, i32 8
  store ptr %36, ptr %38, align 8
  %39 = load ptr, ptr %5, align 8
  %40 = load ptr, ptr %3, align 8
  %41 = getelementptr inbounds %struct._phpdbg_param, ptr %40, i32 0, i32 8
  store ptr %39, ptr %41, align 8
  br label %42

42:                                               ; preds = %28, %19
  %43 = load ptr, ptr %3, align 8
  %44 = getelementptr inbounds %struct._phpdbg_param, ptr %43, i32 0, i32 6
  %45 = load i64, ptr %44, align 8
  %46 = add i64 %45, 1
  store i64 %46, ptr %44, align 8
  br label %47

47:                                               ; preds = %42, %9
  ret void
}