; Function Attrs: mustprogress nofree nounwind willreturn uwtable
define void @phpdbg_stack_push(ptr nocapture noundef %0, ptr nocapture noundef readonly %1) local_unnamed_addr #11 {
  %3 = tail call noalias dereferenceable_or_null(88) ptr @calloc(i64 noundef 1, i64 noundef 88) #25
  %.not = icmp eq ptr %3, null
  br i1 %.not, label %19, label %4

4:                                                ; preds = %2
  tail call void @llvm.memcpy.p0.p0.i64(ptr noundef nonnull align 8 dereferenceable(88) %3, ptr noundef nonnull align 8 dereferenceable(88) %1, i64 72, i1 false)
  %5 = getelementptr inbounds i8, ptr %3, i64 72
  store ptr null, ptr %5, align 8
  %6 = getelementptr inbounds i8, ptr %0, i64 80
  %7 = load ptr, ptr %6, align 8
  %8 = icmp eq ptr %7, null
  br i1 %8, label %9, label %11

9:                                                ; preds = %4
  %10 = getelementptr inbounds i8, ptr %0, i64 72
  store ptr %3, ptr %10, align 8
  br label %14

11:                                               ; preds = %4
  %12 = getelementptr inbounds i8, ptr %7, i64 72
  store ptr %3, ptr %12, align 8
  %13 = load ptr, ptr %6, align 8
  br label %14

14:                                               ; preds = %11, %9
  %.sink = phi ptr [ null, %9 ], [ %13, %11 ]
  store ptr %3, ptr %6, align 8
  %15 = getelementptr inbounds i8, ptr %3, i64 80
  store ptr %.sink, ptr %15, align 8
  %16 = getelementptr inbounds i8, ptr %0, i64 64
  %17 = load i64, ptr %16, align 8
  %18 = add i64 %17, 1
  store i64 %18, ptr %16, align 8
  br label %19

19:                                               ; preds = %2, %14
  ret void
}